target datalayout = "e-m:e-p270:32:32-p271:32:32-p272:64:64-i64:64-i128:128-f80:128-n8:16:32:64-S128"
target triple = "x86_64-pc-linux-gnu"

%struct.DdNode = type { i32, i32, ptr, %union.anon, i64 }
%union.anon = type { %struct.DdChildren }
%struct.DdChildren = type { ptr, ptr }
%struct.DdManager = type { %struct.DdNode, ptr, ptr, ptr, ptr, ptr, ptr, ptr, i32, i32, double, double, double, i32, i32, i32, i32, i32, i32, ptr, ptr, %struct.DdSubtable, i32, i32, i32, i32, i32, i32, i32, double, i32, i32, i32, ptr, i64, double, i32, ptr, ptr, ptr, ptr, ptr, ptr, ptr, i32, ptr, ptr, ptr, ptr, ptr, ptr, i32, i32, i32, double, i32, i32, i32, i32, double, double, i32, i32, i32, i32, i32, i32, i32, i32, i32, ptr, ptr, i32, i32, i32, i32, i32, i32, ptr, ptr, ptr, ptr, ptr, ptr, ptr, ptr, i32, i64, i64, i64, i32, i64, i64, double, double, double, double, double, double, i32, ptr, ptr, i64 }
%struct.DdSubtable = type { ptr, i32, i32, i32, i32, i32, i32, i32, i32, i32, i32, i32 }

; Function Attrs: nounwind uwtable
define void @Cudd_RecursiveDerefZdd(ptr noundef %0, ptr noundef %1) #0 {
  %3 = alloca ptr, align 8
  %4 = alloca ptr, align 8
  %5 = alloca ptr, align 8
  %6 = alloca i32, align 4
  %7 = alloca ptr, align 8
  %8 = alloca i32, align 4
  store ptr %0, ptr %3, align 8, !tbaa !12
  store ptr %1, ptr %4, align 8, !tbaa !3
  call void @llvm.lifetime.start.p0(i64 8, ptr %5) #4
  call void @llvm.lifetime.start.p0(i64 4, ptr %6) #4
  call void @llvm.lifetime.start.p0(i64 8, ptr %7) #4
  %9 = load ptr, ptr %3, align 8, !tbaa !12
  %10 = getelementptr inbounds nuw %struct.DdManager, ptr %9, i32 0, i32 33
  %11 = load ptr, ptr %10, align 8, !tbaa !14
  store ptr %11, ptr %7, align 8, !tbaa !28
  call void @llvm.lifetime.start.p0(i64 4, ptr %8) #4
  store i32 1, ptr %8, align 4, !tbaa !29
  %12 = load ptr, ptr %4, align 8, !tbaa !3
  store ptr %12, ptr %5, align 8, !tbaa !3
  br label %13

13:                                               ; preds = %66, %2
  %14 = load ptr, ptr %5, align 8, !tbaa !3
  %15 = getelementptr inbounds nuw %struct.DdNode, ptr %14, i32 0, i32 1
  %16 = load i32, ptr %15, align 4, !tbaa !8
  %17 = add i32 %16, -1
  store i32 %17, ptr %15, align 4, !tbaa !8
  %18 = load ptr, ptr %5, align 8, !tbaa !3
  %19 = getelementptr inbounds nuw %struct.DdNode, ptr %18, i32 0, i32 1
  %20 = load i32, ptr %19, align 4, !tbaa !8
  %21 = icmp eq i32 %20, 0
  br i1 %21, label %22, label %58

22:                                               ; preds = %13
  %23 = load ptr, ptr %3, align 8, !tbaa !12
  %24 = getelementptr inbounds nuw %struct.DdManager, ptr %23, i32 0, i32 26
  %25 = load i32, ptr %24, align 8, !tbaa !46
  %26 = add i32 %25, 1
  store i32 %26, ptr %24, align 8, !tbaa !46
  %27 = load ptr, ptr %3, align 8, !tbaa !12
  %28 = getelementptr inbounds nuw %struct.DdManager, ptr %27, i32 0, i32 38
  %29 = load ptr, ptr %28, align 8, !tbaa !47
  %30 = load ptr, ptr %5, align 8, !tbaa !3
  %31 = getelementptr inbounds nuw %struct.DdNode, ptr %30, i32 0, i32 0
  %32 = load i32, ptr %31, align 8, !tbaa !33
  %33 = zext i32 %32 to i64
  %34 = getelementptr inbounds nuw i32, ptr %29, i64 %33
  %35 = load i32, ptr %34, align 4, !tbaa !29
  store i32 %35, ptr %6, align 4, !tbaa !29
  %36 = load ptr, ptr %5, align 8, !tbaa !3
  %37 = getelementptr inbounds nuw %struct.DdNode, ptr %36, i32 0, i32 3
  %38 = getelementptr inbounds nuw %struct.DdChildren, ptr %37, i32 0, i32 1
  %39 = load ptr, ptr %38, align 8, !tbaa !36
  %40 = load ptr, ptr %7, align 8, !tbaa !28
  %41 = load i32, ptr %8, align 4, !tbaa !29
  %42 = add nsw i32 %41, 1
  store i32 %42, ptr %8, align 4, !tbaa !29
  %43 = sext i32 %41 to i64
  %44 = getelementptr inbounds ptr, ptr %40, i64 %43
  store ptr %39, ptr %44, align 8, !tbaa !3
  %45 = load ptr, ptr %3, align 8, !tbaa !12
  %46 = getelementptr inbounds nuw %struct.DdManager, ptr %45, i32 0, i32 20
  %47 = load ptr, ptr %46, align 8, !tbaa !48
  %48 = load i32, ptr %6, align 4, !tbaa !29
  %49 = sext i32 %48 to i64
  %50 = getelementptr inbounds %struct.DdSubtable, ptr %47, i64 %49
  %51 = getelementptr inbounds nuw %struct.DdSubtable, ptr %50, i32 0, i32 5
  %52 = load i32, ptr %51, align 8, !tbaa !38
  %53 = add i32 %52, 1
  store i32 %53, ptr %51, align 8, !tbaa !38
  %54 = load ptr, ptr %5, align 8, !tbaa !3
  %55 = getelementptr inbounds nuw %struct.DdNode, ptr %54, i32 0, i32 3
  %56 = getelementptr inbounds nuw %struct.DdChildren, ptr %55, i32 0, i32 0
  %57 = load ptr, ptr %56, align 8, !tbaa !36
  store ptr %57, ptr %5, align 8, !tbaa !3
  br label %65

58:                                               ; preds = %13
  %59 = load ptr, ptr %7, align 8, !tbaa !28
  %60 = load i32, ptr %8, align 4, !tbaa !29
  %61 = add nsw i32 %60, -1
  store i32 %61, ptr %8, align 4, !tbaa !29
  %62 = sext i32 %61 to i64
  %63 = getelementptr inbounds ptr, ptr %59, i64 %62
  %64 = load ptr, ptr %63, align 8, !tbaa !3
  store ptr %64, ptr %5, align 8, !tbaa !3
  br label %65

65:                                               ; preds = %58, %22
  br label %66

66:                                               ; preds = %65
  %67 = load i32, ptr %8, align 4, !tbaa !29
  %68 = icmp ne i32 %67, 0
  br i1 %68, label %13, label %69, !llvm.loop !49

69:                                               ; preds = %66
  call void @llvm.lifetime.end.p0(i64 4, ptr %8) #4
  call void @llvm.lifetime.end.p0(i64 8, ptr %7) #4
  call void @llvm.lifetime.end.p0(i64 4, ptr %6) #4
  call void @llvm.lifetime.end.p0(i64 8, ptr %5) #4
  ret void
}