; Function Attrs: nofree norecurse nosync nounwind memory(readwrite, inaccessiblemem: none) uwtable
define void @Cudd_RecursiveDerefZdd(ptr noundef captures(none) %0, ptr noundef captures(none) %1) local_unnamed_addr #1 {
  %3 = getelementptr inbounds nuw i8, ptr %0, i64 280
  %4 = load ptr, ptr %3, align 8, !tbaa !11
  %5 = getelementptr inbounds nuw i8, ptr %0, i64 240
  %6 = getelementptr inbounds nuw i8, ptr %0, i64 320
  %7 = getelementptr inbounds nuw i8, ptr %0, i64 160
  br label %8

8:                                                ; preds = %36, %2
  %.015 = phi ptr [ %1, %2 ], [ %.116, %36 ]
  %.0 = phi i32 [ 1, %2 ], [ %.1, %36 ]
  %9 = getelementptr inbounds nuw i8, ptr %.015, i64 4
  %10 = load i32, ptr %9, align 4, !tbaa !3
  %11 = add i32 %10, -1
  store i32 %11, ptr %9, align 4, !tbaa !3
  %12 = icmp eq i32 %11, 0
  br i1 %12, label %13, label %32

13:                                               ; preds = %8
  %14 = load i32, ptr %5, align 8, !tbaa !43
  %15 = add i32 %14, 1
  store i32 %15, ptr %5, align 8, !tbaa !43
  %16 = load ptr, ptr %6, align 8, !tbaa !44
  %17 = load i32, ptr %.015, align 8, !tbaa !28
  %18 = zext i32 %17 to i64
  %19 = getelementptr inbounds nuw i32, ptr %16, i64 %18
  %20 = load i32, ptr %19, align 4, !tbaa !31
  %21 = getelementptr inbounds nuw i8, ptr %.015, i64 16
  %22 = getelementptr inbounds nuw i8, ptr %.015, i64 24
  %23 = load ptr, ptr %22, align 8, !tbaa !32
  %24 = add nsw i32 %.0, 1
  %25 = sext i32 %.0 to i64
  %26 = getelementptr inbounds ptr, ptr %4, i64 %25
  store ptr %23, ptr %26, align 8, !tbaa !33
  %27 = load ptr, ptr %7, align 8, !tbaa !45
  %28 = sext i32 %20 to i64
  %29 = getelementptr inbounds %struct.DdSubtable, ptr %27, i64 %28, i32 5
  %30 = load i32, ptr %29, align 8, !tbaa !35
  %31 = add i32 %30, 1
  store i32 %31, ptr %29, align 8, !tbaa !35
  br label %36

32:                                               ; preds = %8
  %33 = add nsw i32 %.0, -1
  %34 = sext i32 %33 to i64
  %35 = getelementptr inbounds ptr, ptr %4, i64 %34
  br label %36

36:                                               ; preds = %13, %32
  %.116.in = phi ptr [ %21, %13 ], [ %35, %32 ]
  %.1 = phi i32 [ %24, %13 ], [ %33, %32 ]
  %.116 = load ptr, ptr %.116.in, align 8, !tbaa !32
  %.not = icmp eq i32 %.1, 0
  br i1 %.not, label %37, label %8, !llvm.loop !46

37:                                               ; preds = %36
  ret void
}